; Function Attrs: nounwind uwtable
define i32 @Gia_ManSifDelay(ptr noundef %0, ptr noundef readonly captures(none) %1, ptr noundef readonly captures(none) %2, i32 noundef %3) local_unnamed_addr #0 {
  tail call void @Gia_ManIncrementTravId(ptr noundef %0) #24
  %5 = getelementptr i8, ptr %0, i64 32
  %6 = getelementptr inbounds nuw i8, ptr %0, i64 72
  %7 = load ptr, ptr %6, align 8, !tbaa !52
  %8 = getelementptr i8, ptr %7, i64 4
  %.val16 = load i32, ptr %8, align 4, !tbaa !42
  %9 = icmp sgt i32 %.val16, 0
  br i1 %9, label %.lr.ph, label %.critedge

.lr.ph:                                           ; preds = %4, %11
  %indvars.iv = phi i64 [ %indvars.iv.next, %11 ], [ 0, %4 ]
  %10 = phi ptr [ %23, %11 ], [ %7, %4 ]
  %.018 = phi i32 [ %22, %11 ], [ 0, %4 ]
  %.val14 = load ptr, ptr %5, align 8, !tbaa !28
  %.not = icmp eq ptr %.val14, null
  br i1 %.not, label %.critedge, label %11

11:                                               ; preds = %.lr.ph
  %12 = getelementptr i8, ptr %10, i64 8
  %.val15.val = load ptr, ptr %12, align 8, !tbaa !39
  %13 = getelementptr inbounds nuw i32, ptr %.val15.val, i64 %indvars.iv
  %14 = load i32, ptr %13, align 4, !tbaa !29
  %15 = sext i32 %14 to i64
  %16 = getelementptr inbounds %struct.Gia_Obj_t_, ptr %.val14, i64 %15
  %17 = load i64, ptr %16, align 4
  %18 = and i64 %17, 536870911
  %19 = sub nsw i64 0, %18
  %20 = getelementptr inbounds %struct.Gia_Obj_t_, ptr %16, i64 %19
  %21 = tail call i32 @Gia_ManSifDelay_rec(ptr noundef nonnull %0, ptr noundef nonnull %20, ptr noundef %1, ptr noundef %2, i32 noundef %3)
  %22 = add nsw i32 %21, %.018
  %indvars.iv.next = add nuw nsw i64 %indvars.iv, 1
  %23 = load ptr, ptr %6, align 8, !tbaa !52
  %24 = getelementptr i8, ptr %23, i64 4
  %.val = load i32, ptr %24, align 4, !tbaa !42
  %25 = sext i32 %.val to i64
  %26 = icmp slt i64 %indvars.iv.next, %25
  br i1 %26, label %.lr.ph, label %.critedge, !llvm.loop !97

.critedge:                                        ; preds = %.lr.ph, %11, %4
  %.0.lcssa = phi i32 [ 0, %4 ], [ %22, %11 ], [ %.018, %.lr.ph ]
  ret i32 %.0.lcssa
}